target datalayout = "e-m:e-p270:32:32-p271:32:32-p272:64:64-i64:64-i128:128-f80:128-n8:16:32:64-S128"
target triple = "x86_64-pc-linux-gnu"

%struct.b2WorldId = type { i16, i16 }
%struct.b2JointId = type { i32, i16, i16 }
%struct.b2BodyId = type { i32, i16, i16 }
%struct.b2Profile = type { float, float, float, float, float, float, float, float, float, float, float, float, float, float, float, float, float, float, float, float, float, float }
%class.Sample = type { ptr, ptr, ptr, ptr, i32, i32, %struct.b2BodyId, i32, %struct.b2WorldId, %struct.b2JointId, i32, i32, %struct.b2Profile, %struct.b2Profile }
%class.SampleTask = type { %"class.enki::ITaskSet.base", ptr, ptr }
%"class.enki::ITaskSet.base" = type <{ %"class.enki::ICompletable", i32, i32, i32 }>
%"class.enki::ICompletable" = type { ptr, i32, %"struct.std::atomic.0", %"struct.std::atomic.0", i32, %"struct.std::atomic.0", ptr }
%"struct.std::atomic.0" = type { %"struct.std::__atomic_base.1" }
%"struct.std::__atomic_base.1" = type { i32 }
%"class.enki::ITaskSet" = type <{ %"class.enki::ICompletable", i32, i32, i32, [4 x i8] }>

; Function Attrs: mustprogress uwtable
define internal noundef ptr @_ZL11EnqueueTaskPFviijPvEiiS_S_(ptr noundef %0, i32 noundef %1, i32 noundef %2, ptr noundef %3, ptr noundef %4) #5 {
  %6 = alloca ptr, align 8
  %7 = alloca ptr, align 8
  %8 = alloca i32, align 4
  %9 = alloca i32, align 4
  %10 = alloca ptr, align 8
  %11 = alloca ptr, align 8
  %12 = alloca ptr, align 8
  %13 = alloca ptr, align 8
  %14 = alloca i32, align 4
  store ptr %0, ptr %7, align 8, !tbaa !67
  store i32 %1, ptr %8, align 4, !tbaa !11
  store i32 %2, ptr %9, align 4, !tbaa !11
  store ptr %3, ptr %10, align 8, !tbaa !67
  store ptr %4, ptr %11, align 8, !tbaa !67
  call void @llvm.lifetime.start.p0(i64 8, ptr %12) #19
  %15 = load ptr, ptr %11, align 8, !tbaa !67
  store ptr %15, ptr %12, align 8, !tbaa !15
  %16 = load ptr, ptr %12, align 8, !tbaa !15
  %17 = getelementptr inbounds nuw %class.Sample, ptr %16, i32 0, i32 4
  %18 = load i32, ptr %17, align 8, !tbaa !34
  %19 = icmp slt i32 %18, 64
  br i1 %19, label %20, label %50

20:                                               ; preds = %5
  call void @llvm.lifetime.start.p0(i64 8, ptr %13) #19
  %21 = load ptr, ptr %12, align 8, !tbaa !15
  %22 = getelementptr inbounds nuw %class.Sample, ptr %21, i32 0, i32 3
  %23 = load ptr, ptr %22, align 8, !tbaa !33
  %24 = load ptr, ptr %12, align 8, !tbaa !15
  %25 = getelementptr inbounds nuw %class.Sample, ptr %24, i32 0, i32 4
  %26 = load i32, ptr %25, align 8, !tbaa !34
  %27 = sext i32 %26 to i64
  %28 = getelementptr inbounds %class.SampleTask, ptr %23, i64 %27
  store ptr %28, ptr %13, align 8, !tbaa !45
  %29 = load i32, ptr %8, align 4, !tbaa !11
  %30 = load ptr, ptr %13, align 8, !tbaa !45
  %31 = getelementptr inbounds nuw %"class.enki::ITaskSet", ptr %30, i32 0, i32 1
  store i32 %29, ptr %31, align 8, !tbaa !68
  %32 = load i32, ptr %9, align 4, !tbaa !11
  %33 = load ptr, ptr %13, align 8, !tbaa !45
  %34 = getelementptr inbounds nuw %"class.enki::ITaskSet", ptr %33, i32 0, i32 2
  store i32 %32, ptr %34, align 4, !tbaa !69
  %35 = load ptr, ptr %7, align 8, !tbaa !67
  %36 = load ptr, ptr %13, align 8, !tbaa !45
  %37 = getelementptr inbounds nuw %class.SampleTask, ptr %36, i32 0, i32 1
  store ptr %35, ptr %37, align 8, !tbaa !46
  %38 = load ptr, ptr %10, align 8, !tbaa !67
  %39 = load ptr, ptr %13, align 8, !tbaa !45
  %40 = getelementptr inbounds nuw %class.SampleTask, ptr %39, i32 0, i32 2
  store ptr %38, ptr %40, align 8, !tbaa !54
  %41 = load ptr, ptr %12, align 8, !tbaa !15
  %42 = getelementptr inbounds nuw %class.Sample, ptr %41, i32 0, i32 2
  %43 = load ptr, ptr %42, align 8, !tbaa !21
  %44 = load ptr, ptr %13, align 8, !tbaa !45
  call void @_ZN4enki13TaskScheduler16AddTaskSetToPipeEPNS_8ITaskSetE(ptr noundef nonnull align 8 dereferenceable(220) %43, ptr noundef %44)
  %45 = load ptr, ptr %12, align 8, !tbaa !15
  %46 = getelementptr inbounds nuw %class.Sample, ptr %45, i32 0, i32 4
  %47 = load i32, ptr %46, align 8, !tbaa !34
  %48 = add nsw i32 %47, 1
  store i32 %48, ptr %46, align 8, !tbaa !34
  %49 = load ptr, ptr %13, align 8, !tbaa !45
  store ptr %49, ptr %6, align 8
  store i32 1, ptr %14, align 4
  call void @llvm.lifetime.end.p0(i64 8, ptr %13) #19
  br label %54

50:                                               ; preds = %5
  %51 = load ptr, ptr %7, align 8, !tbaa !67
  %52 = load i32, ptr %8, align 4, !tbaa !11
  %53 = load ptr, ptr %10, align 8, !tbaa !67
  call void %51(i32 noundef 0, i32 noundef %52, i32 noundef 0, ptr noundef %53)
  store ptr null, ptr %6, align 8
  store i32 1, ptr %14, align 4
  br label %54

54:                                               ; preds = %50, %20
  call void @llvm.lifetime.end.p0(i64 8, ptr %12) #19
  %55 = load ptr, ptr %6, align 8
  ret ptr %55
}