; Function Attrs: mustprogress uwtable
define internal noundef ptr @_ZL11EnqueueTaskPFviijPvEiiS_S_(ptr noundef %0, i32 noundef %1, i32 noundef %2, ptr noundef %3, ptr noundef captures(none) %4) #9 {
  %6 = getelementptr inbounds nuw i8, ptr %4, i64 32
  %7 = load i32, ptr %6, align 8, !tbaa !40
  %8 = icmp slt i32 %7, 64
  br i1 %8, label %9, label %22

9:                                                ; preds = %5
  %10 = getelementptr inbounds nuw i8, ptr %4, i64 24
  %11 = load ptr, ptr %10, align 8, !tbaa !39
  %12 = sext i32 %7 to i64
  %13 = getelementptr inbounds %class.SampleTask, ptr %11, i64 %12
  %14 = getelementptr inbounds nuw i8, ptr %13, i64 40
  store i32 %1, ptr %14, align 8, !tbaa !35
  %15 = getelementptr inbounds nuw i8, ptr %13, i64 44
  store i32 %2, ptr %15, align 4, !tbaa !37
  %16 = getelementptr inbounds nuw i8, ptr %13, i64 56
  store ptr %0, ptr %16, align 8, !tbaa !58
  %17 = getelementptr inbounds nuw i8, ptr %13, i64 64
  store ptr %3, ptr %17, align 8, !tbaa !60
  %18 = getelementptr inbounds nuw i8, ptr %4, i64 16
  %19 = load ptr, ptr %18, align 8, !tbaa !21
  tail call void @_ZN4enki13TaskScheduler16AddTaskSetToPipeEPNS_8ITaskSetE(ptr noundef nonnull align 8 dereferenceable(220) %19, ptr noundef %13)
  %20 = load i32, ptr %6, align 8, !tbaa !40
  %21 = add nsw i32 %20, 1
  store i32 %21, ptr %6, align 8, !tbaa !40
  br label %23

22:                                               ; preds = %5
  tail call void %0(i32 noundef 0, i32 noundef %1, i32 noundef 0, ptr noundef %3)
  br label %23

23:                                               ; preds = %22, %9
  %.0 = phi ptr [ %13, %9 ], [ null, %22 ]
  ret ptr %.0
}